---
triple:          'x86_64-apple-darwin'
binary-path:     '/Users/hugodrak/Documents/chalmers/1_kandarb_EENX16/CASE/cpp_playground/tracker_grid/tracker_grid'
relocations:
  - { offsetInCU: 0x1EFA6, offset: 0x1EFA6, size: 0x8, addend: 0x0, symName: __ZNSt3__124__put_character_sequenceB7v160006IcNS_11char_traitsIcEEEERNS_13basic_ostreamIT_T0_EES7_PKS4_m, symObjAddr: 0x6E20, symBinAddr: 0x1000073B0, symSize: 0x150 }
  - { offsetInCU: 0x2175C, offset: 0x2175C, size: 0x8, addend: 0x0, symName: __ZNSt3__127__tree_balance_after_insertB7v160006IPNS_16__tree_node_baseIPvEEEEvT_S5_, symObjAddr: 0x6CC0, symBinAddr: 0x100007250, symSize: 0x160 }
  - { offsetInCU: 0x257FF, offset: 0x257FF, size: 0x8, addend: 0x0, symName: __ZNSt3__17getlineB7v160006IcNS_11char_traitsIcEENS_9allocatorIcEEEERNS_13basic_istreamIT_T0_EES9_RNS_12basic_stringIS6_S7_T1_EES6_, symObjAddr: 0x58C0, symBinAddr: 0x100005E50, symSize: 0x150 }
  - { offsetInCU: 0x25AF7, offset: 0x25AF7, size: 0x8, addend: 0x0, symName: __ZNSt3__120__throw_length_errorB7v160006EPKc, symObjAddr: 0x5CD0, symBinAddr: 0x100006260, symSize: 0x50 }
  - { offsetInCU: 0x265FA, offset: 0x265FA, size: 0x8, addend: 0x0, symName: __ZNSt3__116__pad_and_outputB7v160006IcNS_11char_traitsIcEEEENS_19ostreambuf_iteratorIT_T0_EES6_PKS4_S8_S8_RNS_8ios_baseES4_, symObjAddr: 0x6F70, symBinAddr: 0x100007500, symSize: 0x145 }
  - { offsetInCU: 0x2749B, offset: 0x2749B, size: 0x8, addend: 0x0, symName: __ZSt28__throw_bad_array_new_lengthB7v160006v, symObjAddr: 0x5D50, symBinAddr: 0x1000062E0, symSize: 0x40 }
  - { offsetInCU: 0x2CB27, offset: 0x2CB27, size: 0x8, addend: 0x0, symName: __Z21createInitialClustersRNSt3__16vectorI6point3NS_9allocatorIS1_EEEEifRNS0_INS0_IiNS2_IiEEEENS2_IS7_EEEE, symObjAddr: 0x0, symBinAddr: 0x100000590, symSize: 0x5F0 }
  - { offsetInCU: 0x2DB57, offset: 0x2DB57, size: 0x8, addend: 0x0, symName: __ZNSt3__16__treeINS_12__value_typeINS_4pairIiiEENS_6vectorIiNS_9allocatorIiEEEEEENS_19__map_value_compareIS3_S8_NS_4lessIS3_EELb1EEENS5_IS8_EEE7destroyEPNS_11__tree_nodeIS8_PvEE, symObjAddr: 0x6C70, symBinAddr: 0x100007200, symSize: 0x50 }
  - { offsetInCU: 0x2DE85, offset: 0x2DE85, size: 0x8, addend: 0x0, symName: __ZNSt3__16vectorINS0_IiNS_9allocatorIiEEEENS1_IS3_EEE21__push_back_slow_pathIRKS3_EEvOT_, symObjAddr: 0x5D90, symBinAddr: 0x100006320, symSize: 0x340 }
  - { offsetInCU: 0x2E979, offset: 0x2E979, size: 0x8, addend: 0x0, symName: __ZNKSt3__16vectorIiNS_9allocatorIiEEE20__throw_length_errorB7v160006Ev, symObjAddr: 0x5CB0, symBinAddr: 0x100006240, symSize: 0x10 }
  - { offsetInCU: 0x2E9A3, offset: 0x2E9A3, size: 0x8, addend: 0x0, symName: ___clang_call_terminate, symObjAddr: 0x5CC0, symBinAddr: 0x100006250, symSize: 0x10 }
  - { offsetInCU: 0x2EAFF, offset: 0x2EAFF, size: 0x8, addend: 0x0, symName: __Z13mergeClustersRNSt3__16vectorI13ClusterObjectNS_9allocatorIS1_EEEEidiiRNS0_INS0_IiNS2_IiEEEENS2_IS7_EEEE, symObjAddr: 0x5F0, symBinAddr: 0x100000B80, symSize: 0xB40 }
  - { offsetInCU: 0x30BF3, offset: 0x30BF3, size: 0x8, addend: 0x0, symName: __Z10gridScanHDRNSt3__16vectorI6point3NS_9allocatorIS1_EEEERNS0_I19MergedClusterObjectNS2_IS6_EEEEifffif, symObjAddr: 0x1130, symBinAddr: 0x1000016C0, symSize: 0x16E0 }
  - { offsetInCU: 0x33A36, offset: 0x33A36, size: 0x8, addend: 0x0, symName: __ZNSt3__16vectorINS0_IiNS_9allocatorIiEEEENS1_IS3_EEEC2EmRKS3_, symObjAddr: 0x6140, symBinAddr: 0x1000066D0, symSize: 0x3E0 }
  - { offsetInCU: 0x33FD8, offset: 0x33FD8, size: 0x8, addend: 0x0, symName: __ZNKSt3__16vectorI6point3NS_9allocatorIS1_EEE20__throw_length_errorB7v160006Ev, symObjAddr: 0x65A0, symBinAddr: 0x100006B30, symSize: 0x10 }
  - { offsetInCU: 0x34002, offset: 0x34002, size: 0x8, addend: 0x0, symName: __ZNKSt3__16vectorI13ClusterObjectNS_9allocatorIS1_EEE20__throw_length_errorB7v160006Ev, symObjAddr: 0x65B0, symBinAddr: 0x100006B40, symSize: 0x10 }
  - { offsetInCU: 0x3400D, offset: 0x3400D, size: 0x8, addend: 0x0, symName: __ZNKSt3__16vectorI13ClusterObjectNS_9allocatorIS1_EEE20__throw_length_errorB7v160006Ev, symObjAddr: 0x65B0, symBinAddr: 0x100006B40, symSize: 0x10 }
  - { offsetInCU: 0x34037, offset: 0x34037, size: 0x8, addend: 0x0, symName: __ZNKSt3__16vectorI19MergedClusterObjectNS_9allocatorIS1_EEE20__throw_length_errorB7v160006Ev, symObjAddr: 0x65C0, symBinAddr: 0x100006B50, symSize: 0x10 }
  - { offsetInCU: 0x34042, offset: 0x34042, size: 0x8, addend: 0x0, symName: __ZNKSt3__16vectorI19MergedClusterObjectNS_9allocatorIS1_EEE20__throw_length_errorB7v160006Ev, symObjAddr: 0x65C0, symBinAddr: 0x100006B50, symSize: 0x10 }
  - { offsetInCU: 0x3406C, offset: 0x3406C, size: 0x8, addend: 0x0, symName: __ZNKSt3__16vectorI13TrackedObjectNS_9allocatorIS1_EEE20__throw_length_errorB7v160006Ev, symObjAddr: 0x65D0, symBinAddr: 0x100006B60, symSize: 0x10 }
  - { offsetInCU: 0x34077, offset: 0x34077, size: 0x8, addend: 0x0, symName: __ZNSt3__16vectorINS0_IiNS_9allocatorIiEEEENS1_IS3_EEED1B7v160006Ev, symObjAddr: 0x2810, symBinAddr: 0x100002DA0, symSize: 0x80 }
  - { offsetInCU: 0x34978, offset: 0x34978, size: 0x8, addend: 0x0, symName: __Z13createObjectsRNSt3__16vectorI6point3NS_9allocatorIS1_EEEERNS0_IiNS2_IiEEEEiRNS0_I13TrackedObjectNS2_IS9_EEEERiRNS_14priority_queueIiS7_NS_7greaterIiEEEEf, symObjAddr: 0x2890, symBinAddr: 0x100002E20, symSize: 0x5E0 }
  - { offsetInCU: 0x3548E, offset: 0x3548E, size: 0x8, addend: 0x0, symName: __ZNKSt3__16vectorI13TrackedObjectNS_9allocatorIS1_EEE20__throw_length_errorB7v160006Ev, symObjAddr: 0x65D0, symBinAddr: 0x100006B60, symSize: 0x10 }
  - { offsetInCU: 0x354B8, offset: 0x354B8, size: 0x8, addend: 0x0, symName: __ZNKSt3__112basic_stringIcNS_11char_traitsIcEENS_9allocatorIcEEE20__throw_length_errorB7v160006Ev, symObjAddr: 0x65E0, symBinAddr: 0x100006B70, symSize: 0x10 }
  - { offsetInCU: 0x35726, offset: 0x35726, size: 0x8, addend: 0x0, symName: __Z12matchObjectsRNSt3__16vectorI13TrackedObjectNS_9allocatorIS1_EEEES5_RNS_14priority_queueIiNS0_IiNS2_IiEEEENS_7greaterIiEEEE, symObjAddr: 0x2E70, symBinAddr: 0x100003400, symSize: 0x7F0 }
  - { offsetInCU: 0x36A4B, offset: 0x36A4B, size: 0x8, addend: 0x0, symName: __ZNSt3__114priority_queueIiNS_6vectorIiNS_9allocatorIiEEEENS_7greaterIiEEE4pushERKi, symObjAddr: 0x3660, symBinAddr: 0x100003BF0, symSize: 0x240 }
  - { offsetInCU: 0x3739F, offset: 0x3739F, size: 0x8, addend: 0x0, symName: __Z8printBoxRKNSt3__112basic_stringIcNS_11char_traitsIcEENS_9allocatorIcEEEE, symObjAddr: 0x38A0, symBinAddr: 0x100003E30, symSize: 0x440 }
  - { offsetInCU: 0x39AE4, offset: 0x39AE4, size: 0x8, addend: 0x0, symName: _main, symObjAddr: 0x3CE0, symBinAddr: 0x100004270, symSize: 0x1840 }
  - { offsetInCU: 0x3EFCE, offset: 0x3EFCE, size: 0x8, addend: 0x0, symName: __ZNSt3__114basic_ifstreamIcNS_11char_traitsIcEEEC1ERKNS_12basic_stringIcS2_NS_9allocatorIcEEEEj, symObjAddr: 0x5520, symBinAddr: 0x100005AB0, symSize: 0x130 }
  - { offsetInCU: 0x3F14B, offset: 0x3F14B, size: 0x8, addend: 0x0, symName: __ZNSt3__114basic_ofstreamIcNS_11char_traitsIcEEEC1EPKcj, symObjAddr: 0x5650, symBinAddr: 0x100005BE0, symSize: 0x110 }
  - { offsetInCU: 0x3F227, offset: 0x3F227, size: 0x8, addend: 0x0, symName: __ZNSt3__16vectorINS0_IfNS_9allocatorIfEEEENS1_IS3_EEE21__push_back_slow_pathIS3_EEvOT_, symObjAddr: 0x65F0, symBinAddr: 0x100006B80, symSize: 0x190 }
  - { offsetInCU: 0x3F93C, offset: 0x3F93C, size: 0x8, addend: 0x0, symName: __ZNSt3__16vectorINS0_I6point3NS_9allocatorIS1_EEEENS2_IS4_EEE21__push_back_slow_pathIS4_EEvOT_, symObjAddr: 0x6790, symBinAddr: 0x100006D20, symSize: 0x190 }
  - { offsetInCU: 0x40051, offset: 0x40051, size: 0x8, addend: 0x0, symName: __ZNSt3__16vectorINS0_IiNS_9allocatorIiEEEENS1_IS3_EEE21__push_back_slow_pathIS3_EEvOT_, symObjAddr: 0x6930, symBinAddr: 0x100006EC0, symSize: 0x190 }
  - { offsetInCU: 0x40766, offset: 0x40766, size: 0x8, addend: 0x0, symName: __ZNSt3__16vectorINS0_I19MergedClusterObjectNS_9allocatorIS1_EEEENS2_IS4_EEE21__push_back_slow_pathIS4_EEvOT_, symObjAddr: 0x6AC0, symBinAddr: 0x100007050, symSize: 0x190 }
  - { offsetInCU: 0x40E7B, offset: 0x40E7B, size: 0x8, addend: 0x0, symName: __ZNSt3__118basic_stringstreamIcNS_11char_traitsIcEENS_9allocatorIcEEEC1B7v160006ERKNS_12basic_stringIcS2_S4_EEj, symObjAddr: 0x5760, symBinAddr: 0x100005CF0, symSize: 0x160 }
  - { offsetInCU: 0x410B7, offset: 0x410B7, size: 0x8, addend: 0x0, symName: __ZNKSt3__16vectorIfNS_9allocatorIfEEE20__throw_length_errorB7v160006Ev, symObjAddr: 0x6C60, symBinAddr: 0x1000071F0, symSize: 0x10 }
  - { offsetInCU: 0x410E1, offset: 0x410E1, size: 0x8, addend: 0x0, symName: __ZNSt3__16__treeINS_12__value_typeINS_4pairIiiEENS_6vectorIiNS_9allocatorIiEEEEEENS_19__map_value_compareIS3_S8_NS_4lessIS3_EELb1EEENS5_IS8_EEE7destroyEPNS_11__tree_nodeIS8_PvEE, symObjAddr: 0x6C70, symBinAddr: 0x100007200, symSize: 0x50 }
  - { offsetInCU: 0x410EC, offset: 0x410EC, size: 0x8, addend: 0x0, symName: __ZNKSt3__112basic_stringIcNS_11char_traitsIcEENS_9allocatorIcEEE20__throw_length_errorB7v160006Ev, symObjAddr: 0x65E0, symBinAddr: 0x100006B70, symSize: 0x10 }
  - { offsetInCU: 0x41116, offset: 0x41116, size: 0x8, addend: 0x0, symName: __ZNSt3__16vectorINS0_IfNS_9allocatorIfEEEENS1_IS3_EEE21__push_back_slow_pathIS3_EEvOT_, symObjAddr: 0x65F0, symBinAddr: 0x100006B80, symSize: 0x190 }
  - { offsetInCU: 0x41121, offset: 0x41121, size: 0x8, addend: 0x0, symName: __ZNSt3__118basic_stringstreamIcNS_11char_traitsIcEENS_9allocatorIcEEED1Ev, symObjAddr: 0x5A10, symBinAddr: 0x100005FA0, symSize: 0x80 }
  - { offsetInCU: 0x412BC, offset: 0x412BC, size: 0x8, addend: 0x0, symName: __ZNSt3__16vectorINS0_IfNS_9allocatorIfEEEENS1_IS3_EEED1B7v160006Ev, symObjAddr: 0x5A90, symBinAddr: 0x100006020, symSize: 0x80 }
  - { offsetInCU: 0x415AB, offset: 0x415AB, size: 0x8, addend: 0x0, symName: __ZNSt3__16vectorINS0_I19MergedClusterObjectNS_9allocatorIS1_EEEENS2_IS4_EEED1B7v160006Ev, symObjAddr: 0x5B10, symBinAddr: 0x1000060A0, symSize: 0x80 }
  - { offsetInCU: 0x4189A, offset: 0x4189A, size: 0x8, addend: 0x0, symName: __ZNSt3__16vectorINS0_I6point3NS_9allocatorIS1_EEEENS2_IS4_EEED1B7v160006Ev, symObjAddr: 0x5B90, symBinAddr: 0x100006120, symSize: 0x80 }
  - { offsetInCU: 0x41B89, offset: 0x41B89, size: 0x8, addend: 0x0, symName: __ZNSt3__114basic_ofstreamIcNS_11char_traitsIcEEED1Ev, symObjAddr: 0x5C10, symBinAddr: 0x1000061A0, symSize: 0x50 }
  - { offsetInCU: 0x41BD3, offset: 0x41BD3, size: 0x8, addend: 0x0, symName: __ZNSt3__114basic_ifstreamIcNS_11char_traitsIcEEED1Ev, symObjAddr: 0x5C60, symBinAddr: 0x1000061F0, symSize: 0x50 }
  - { offsetInCU: 0x41EAC, offset: 0x41EAC, size: 0x8, addend: 0x0, symName: __ZNSt12length_errorC1B7v160006EPKc, symObjAddr: 0x5D20, symBinAddr: 0x1000062B0, symSize: 0x30 }
  - { offsetInCU: 0x4220C, offset: 0x4220C, size: 0x8, addend: 0x0, symName: __ZNKSt3__16vectorINS0_IiNS_9allocatorIiEEEENS1_IS3_EEE20__throw_length_errorB7v160006Ev, symObjAddr: 0x6130, symBinAddr: 0x1000066C0, symSize: 0x10 }
  - { offsetInCU: 0x42236, offset: 0x42236, size: 0x8, addend: 0x0, symName: __ZNSt3__16vectorINS0_IiNS_9allocatorIiEEEENS1_IS3_EEEC2EmRKS3_, symObjAddr: 0x6140, symBinAddr: 0x1000066D0, symSize: 0x3E0 }
  - { offsetInCU: 0x42241, offset: 0x42241, size: 0x8, addend: 0x0, symName: __ZNSt3__114__split_bufferINS_6vectorIiNS_9allocatorIiEEEERNS2_IS4_EEED1Ev, symObjAddr: 0x60D0, symBinAddr: 0x100006660, symSize: 0x60 }
  - { offsetInCU: 0x42601, offset: 0x42601, size: 0x8, addend: 0x0, symName: __ZNSt3__128__exception_guard_exceptionsINS_6vectorINS1_IiNS_9allocatorIiEEEENS2_IS4_EEE16__destroy_vectorEED1B7v160006Ev, symObjAddr: 0x6520, symBinAddr: 0x100006AB0, symSize: 0x80 }
  - { offsetInCU: 0x42B59, offset: 0x42B59, size: 0x8, addend: 0x0, symName: __ZNKSt3__16vectorINS0_IfNS_9allocatorIfEEEENS1_IS3_EEE20__throw_length_errorB7v160006Ev, symObjAddr: 0x6780, symBinAddr: 0x100006D10, symSize: 0x10 }
  - { offsetInCU: 0x42B83, offset: 0x42B83, size: 0x8, addend: 0x0, symName: __ZNSt3__16vectorINS0_I6point3NS_9allocatorIS1_EEEENS2_IS4_EEE21__push_back_slow_pathIS4_EEvOT_, symObjAddr: 0x6790, symBinAddr: 0x100006D20, symSize: 0x190 }
  - { offsetInCU: 0x42DC4, offset: 0x42DC4, size: 0x8, addend: 0x0, symName: __ZNKSt3__16vectorINS0_I6point3NS_9allocatorIS1_EEEENS2_IS4_EEE20__throw_length_errorB7v160006Ev, symObjAddr: 0x6920, symBinAddr: 0x100006EB0, symSize: 0x10 }
  - { offsetInCU: 0x42DEE, offset: 0x42DEE, size: 0x8, addend: 0x0, symName: __ZNSt3__16vectorINS0_IiNS_9allocatorIiEEEENS1_IS3_EEE21__push_back_slow_pathIS3_EEvOT_, symObjAddr: 0x6930, symBinAddr: 0x100006EC0, symSize: 0x190 }
  - { offsetInCU: 0x4302F, offset: 0x4302F, size: 0x8, addend: 0x0, symName: __ZNKSt3__16vectorINS0_I19MergedClusterObjectNS_9allocatorIS1_EEEENS2_IS4_EEE20__throw_length_errorB7v160006Ev, symObjAddr: 0x6C50, symBinAddr: 0x1000071E0, symSize: 0x10 }
  - { offsetInCU: 0x43059, offset: 0x43059, size: 0x8, addend: 0x0, symName: __ZNKSt3__16vectorIfNS_9allocatorIfEEE20__throw_length_errorB7v160006Ev, symObjAddr: 0x6C60, symBinAddr: 0x1000071F0, symSize: 0x10 }
...
